; Function Attrs: mustprogress uwtable
define hidden noundef nonnull align 8 dereferenceable(8) ptr @_ZN4cvc58internal6theory5arith6linear11inferboundslsERSoNS4_10AlgorithmsE(ptr noundef nonnull returned align 8 dereferenceable(8) %os, i32 noundef %a) local_unnamed_addr #9 personality ptr @__gxx_personality_v0 {
entry:
  %ref.tmp = alloca %"class.cvc5::internal::FatalStream", align 1
  %0 = icmp ult i32 %a, 4
  br i1 %0, label %switch.lookup, label %sw.default

sw.default:                                       ; preds = %entry
  call void @_ZN4cvc58internal11FatalStreamC1EPKcS3_i(ptr noundef nonnull align 1 dereferenceable(1) %ref.tmp, ptr noundef nonnull @__PRETTY_FUNCTION__._ZN4cvc58internal6theory5arith6linear11inferboundslsERSoNS4_10AlgorithmsE, ptr noundef nonnull @.str.21, i32 noundef 261)
  %call7 = invoke noundef nonnull align 8 dereferenceable(8) ptr @_ZN4cvc58internal11FatalStream6streamEv(ptr noundef nonnull align 1 dereferenceable(1) %ref.tmp)
          to label %invoke.cont unwind label %lpad

invoke.cont:                                      ; preds = %sw.default
  %call9 = invoke noundef nonnull align 8 dereferenceable(8) ptr @_ZStlsISt11char_traitsIcEERSt13basic_ostreamIcT_ES5_PKc(ptr noundef nonnull align 8 dereferenceable(8) %call7, ptr noundef nonnull @.str.22)
          to label %invoke.cont8 unwind label %lpad

invoke.cont8:                                     ; preds = %invoke.cont
  call void @_ZN4cvc58internal11FatalStreamD1Ev(ptr noundef nonnull align 1 dereferenceable(1) %ref.tmp) #26
  unreachable

lpad:                                             ; preds = %invoke.cont, %sw.default
  %1 = landingpad { ptr, i32 }
          cleanup
  call void @_ZN4cvc58internal11FatalStreamD1Ev(ptr noundef nonnull align 1 dereferenceable(1) %ref.tmp) #26
  unreachable

switch.lookup:                                    ; preds = %entry
  %2 = zext nneg i32 %a to i64
  %switch.gep = getelementptr inbounds nuw [4 x ptr], ptr @switch.table._ZN4cvc58internal6theory5arith6linear11inferboundslsERSoNS4_10AlgorithmsE, i64 0, i64 %2
  %switch.load = load ptr, ptr %switch.gep, align 8
  %call6 = tail call noundef nonnull align 8 dereferenceable(8) ptr @_ZStlsISt11char_traitsIcEERSt13basic_ostreamIcT_ES5_PKc(ptr noundef nonnull align 8 dereferenceable(8) %os, ptr noundef nonnull %switch.load)
  ret ptr %os
}